; Function Attrs: mustprogress uwtable
define noundef zeroext i1 @_ZN3re26Regexp10MimicsPCREEv(ptr noundef nonnull align 8 dereferenceable(40) %this) local_unnamed_addr #0 align 2 personality ptr @__gxx_personality_v0 {
entry:
  %w = alloca %"class.re2::PCREWalker", align 8
  store ptr getelementptr inbounds ({ [8 x ptr] }, ptr @_ZTVN3re26Regexp6WalkerIbEE, i64 0, i32 0, i64 2), ptr %w, align 8
  %stack_.i.i = getelementptr inbounds i8, ptr %w, i64 8
  call void @llvm.memset.p0.i64(ptr noundef nonnull align 8 dereferenceable(80) %stack_.i.i, i8 0, i64 80, i1 false)
  call void @_ZNSt11_Deque_baseIN3re29WalkStateIbEESaIS2_EE17_M_initialize_mapEm(ptr noundef nonnull align 8 dereferenceable(80) %stack_.i.i, i64 noundef 0)
  %stopped_early_.i.i = getelementptr inbounds i8, ptr %w, i64 88
  store i8 0, ptr %stopped_early_.i.i, align 8
  store ptr getelementptr inbounds ({ [8 x ptr] }, ptr @_ZTVN3re210PCREWalkerE, i64 0, i32 0, i64 2), ptr %w, align 8
  %max_visits_.i = getelementptr inbounds i8, ptr %w, i64 92
  store i32 1000000, ptr %max_visits_.i, align 4
  %call.i1 = invoke noundef zeroext i1 @_ZN3re26Regexp6WalkerIbE12WalkInternalEPS0_bb(ptr noundef nonnull align 8 dereferenceable(96) %w, ptr noundef nonnull %this, i1 noundef zeroext true, i1 noundef zeroext true)
          to label %invoke.cont unwind label %lpad

invoke.cont:                                      ; preds = %entry
  store ptr getelementptr inbounds ({ [8 x ptr] }, ptr @_ZTVN3re26Regexp6WalkerIbEE, i64 0, i32 0, i64 2), ptr %w, align 8
  invoke void @_ZN3re26Regexp6WalkerIbE5ResetEv(ptr noundef nonnull align 8 dereferenceable(96) %w)
          to label %invoke.cont.i.i unwind label %terminate.lpad.i.i

invoke.cont.i.i:                                  ; preds = %invoke.cont
  %0 = load ptr, ptr %stack_.i.i, align 8
  %tobool.not.i.i.i.i.i = icmp eq ptr %0, null
  br i1 %tobool.not.i.i.i.i.i, label %_ZN3re210PCREWalkerD2Ev.exit, label %if.then.i.i.i.i.i

if.then.i.i.i.i.i:                                ; preds = %invoke.cont.i.i
  %_M_node5.i.i6.i.i.i.i = getelementptr inbounds i8, ptr %w, i64 80
  %_M_node5.i.i.i.i.i.i = getelementptr inbounds i8, ptr %w, i64 48
  %1 = load ptr, ptr %_M_node5.i.i.i.i.i.i, align 8
  %2 = load ptr, ptr %_M_node5.i.i6.i.i.i.i, align 8
  %add.ptr.i.i.i.i.i = getelementptr inbounds i8, ptr %2, i64 8
  %cmp3.i.i.i.i.i.i = icmp ult ptr %1, %add.ptr.i.i.i.i.i
  br i1 %cmp3.i.i.i.i.i.i, label %for.body.i.i.i.i.i.i, label %_ZNSt11_Deque_baseIN3re29WalkStateIbEESaIS2_EE16_M_destroy_nodesEPPS2_S6_.exit.i.i.i.i.i

for.body.i.i.i.i.i.i:                             ; preds = %if.then.i.i.i.i.i, %for.body.i.i.i.i.i.i
  %__n.04.i.i.i.i.i.i = phi ptr [ %incdec.ptr.i.i.i.i.i.i, %for.body.i.i.i.i.i.i ], [ %1, %if.then.i.i.i.i.i ]
  %3 = load ptr, ptr %__n.04.i.i.i.i.i.i, align 8
  call void @_ZdlPv(ptr noundef %3) #15
  %incdec.ptr.i.i.i.i.i.i = getelementptr inbounds i8, ptr %__n.04.i.i.i.i.i.i, i64 8
  %cmp.i.i.i.i.i.i = icmp ult ptr %__n.04.i.i.i.i.i.i, %2
  br i1 %cmp.i.i.i.i.i.i, label %for.body.i.i.i.i.i.i, label %_ZNSt11_Deque_baseIN3re29WalkStateIbEESaIS2_EE16_M_destroy_nodesEPPS2_S6_.exit.loopexit.i.i.i.i.i, !llvm.loop !6

_ZNSt11_Deque_baseIN3re29WalkStateIbEESaIS2_EE16_M_destroy_nodesEPPS2_S6_.exit.loopexit.i.i.i.i.i: ; preds = %for.body.i.i.i.i.i.i
  %.pre.i.i.i.i.i = load ptr, ptr %stack_.i.i, align 8
  br label %_ZNSt11_Deque_baseIN3re29WalkStateIbEESaIS2_EE16_M_destroy_nodesEPPS2_S6_.exit.i.i.i.i.i

_ZNSt11_Deque_baseIN3re29WalkStateIbEESaIS2_EE16_M_destroy_nodesEPPS2_S6_.exit.i.i.i.i.i: ; preds = %_ZNSt11_Deque_baseIN3re29WalkStateIbEESaIS2_EE16_M_destroy_nodesEPPS2_S6_.exit.loopexit.i.i.i.i.i, %if.then.i.i.i.i.i
  %4 = phi ptr [ %.pre.i.i.i.i.i, %_ZNSt11_Deque_baseIN3re29WalkStateIbEESaIS2_EE16_M_destroy_nodesEPPS2_S6_.exit.loopexit.i.i.i.i.i ], [ %0, %if.then.i.i.i.i.i ]
  call void @_ZdlPv(ptr noundef %4) #15
  br label %_ZN3re210PCREWalkerD2Ev.exit

terminate.lpad.i.i:                               ; preds = %invoke.cont
  %5 = landingpad { ptr, i32 }
          catch ptr null
  %6 = extractvalue { ptr, i32 } %5, 0
  call void @__clang_call_terminate(ptr %6) #16
  unreachable

_ZN3re210PCREWalkerD2Ev.exit:                     ; preds = %invoke.cont.i.i, %_ZNSt11_Deque_baseIN3re29WalkStateIbEESaIS2_EE16_M_destroy_nodesEPPS2_S6_.exit.i.i.i.i.i
  ret i1 %call.i1

lpad:                                             ; preds = %entry
  %7 = landingpad { ptr, i32 }
          cleanup
  call void @_ZN3re210PCREWalkerD2Ev(ptr noundef nonnull align 8 dereferenceable(96) %w) #17
  resume { ptr, i32 } %7
}